target datalayout = "e-m:e-p270:32:32-p271:32:32-p272:64:64-i64:64-i128:128-f80:128-n8:16:32:64-S128"
target triple = "x86_64-pc-linux-gnu"

%class.MainWindow = type { %class.QMainWindow, %class.QList.0, ptr, ptr, %class.QSplitter, %class.QSplitter, %class.QWidget, %class.QList.4, ptr, ptr, ptr, ptr, ptr, ptr }
%class.QMainWindow = type { %class.QWidget }
%class.QList.0 = type { %struct.QArrayDataPointer.3 }
%struct.QArrayDataPointer.3 = type { ptr, ptr, i64 }
%class.QSplitter = type { %class.QFrame }
%class.QFrame = type { %class.QWidget }
%class.QWidget = type { %class.QObject, %class.QPaintDevice.base, ptr }
%class.QObject = type { ptr, %class.QScopedPointer }
%class.QScopedPointer = type { ptr }
%class.QPaintDevice.base = type <{ ptr, i16 }>
%class.QList.4 = type { %struct.QArrayDataPointer.7 }
%struct.QArrayDataPointer.7 = type { ptr, ptr, i64 }

; Function Attrs: mustprogress uwtable
define void @_ZN10MainWindow9gotoFrameEi(ptr noundef nonnull align 8 dereferenceable(272) %0, i32 noundef %1) #3 align 2 {
  %3 = alloca ptr, align 8
  %4 = alloca i32, align 4
  store ptr %0, ptr %3, align 8
  store i32 %1, ptr %4, align 4
  %5 = load ptr, ptr %3, align 8
  %6 = load i32, ptr %4, align 4
  %7 = icmp sgt i32 %6, 0
  br i1 %7, label %8, label %12

8:                                                ; preds = %2
  %9 = getelementptr inbounds %class.MainWindow, ptr %5, i32 0, i32 8
  %10 = load ptr, ptr %9, align 8
  %11 = load i32, ptr %4, align 4
  call void @_ZN10PacketList10goToPacketEii(ptr noundef nonnull align 8 dereferenceable(464) %10, i32 noundef %11, i32 noundef -1)
  br label %12

12:                                               ; preds = %8, %2
  ret void
}