; Function Attrs: mustprogress uwtable
define void @_ZN10MainWindow9gotoFrameEi(ptr nocapture noundef nonnull readonly align 8 dereferenceable(272) %0, i32 noundef %1) local_unnamed_addr #2 align 2 {
  %3 = icmp sgt i32 %1, 0
  br i1 %3, label %4, label %7

4:                                                ; preds = %2
  %5 = getelementptr inbounds i8, ptr %0, i64 224
  %6 = load ptr, ptr %5, align 8
  tail call void @_ZN10PacketList10goToPacketEii(ptr noundef nonnull align 8 dereferenceable(464) %6, i32 noundef %1, i32 noundef -1)
  br label %7

7:                                                ; preds = %4, %2
  ret void
}